ccopy_reg
_reconstructor
p1
(cargparse
Namespace
p2
c__builtin__
object
p3
NtRp4
(dp5
S'grad_clip'
p6
F10
sS'rnn_size'
p7
I256
sS'data_scale'
p8
F1000
sS'learning_rate'
p9
F0.0050000000000000001
sS'num_epochs'
p10
I30
sS'seq_length'
p11
I300
sS'batch_size'
p12
I50
sS'decay_rate'
p13
F0.94999999999999996
sS'num_mixture'
p14
I20
sS'mesh_filename'
p15
S'/home/kronick/Desktop/meshlab samples/bunny2.ply'
p16
sS'num_training_samples'
p17
I10000
sS'num_layers'
p18
I2
sS'model'
p19
S'lstm'
p20
sS'save_every'
p21
I500
sS'keep_prob'
p22
F0.80000000000000004
sb.