ccopy_reg
_reconstructor
p1
(cargparse
Namespace
p2
c__builtin__
object
p3
NtRp4
(dp5
S'grad_clip'
p6
F10
sS'relative'
p7
I00
sS'rnn_size'
p8
I8
sS'data_scale'
p9
F500
sS'use_checkpoint'
p10
NsS'learning_rate'
p11
F0.0050000000000000001
sS'num_epochs'
p12
I30
sS'smooth'
p13
F0.80000000000000004
sS'seq_length'
p14
I10
sS'batch_size'
p15
I2
sS'decay_rate'
p16
F0.94999999999999996
sS'num_mixture'
p17
I20
sS'mesh_filename'
p18
S'bunny2.ply'
p19
sS'num_training_samples'
p20
I10000
sS'num_layers'
p21
I1
sS'gpu'
p22
I00
sS'model'
p23
S'lstm'
p24
sS'save_every'
p25
I500
sS'keep_prob'
p26
F0.80000000000000004
sS'num_mixture_normals'
p27
I5
sb.