ccopy_reg
_reconstructor
p1
(cargparse
Namespace
p2
c__builtin__
object
p3
NtRp4
(dp5
S'grad_clip'
p6
F10
sS'relative'
p7
I00
sS'rnn_size'
p8
I32
sS'data_scale'
p9
F1000
sS'use_checkpoint'
p10
NsS'learning_rate'
p11
F0.01
sS'num_epochs'
p12
I10
sS'seq_length'
p13
I10
sS'batch_size'
p14
I10
sS'decay_rate'
p15
F0.94999999999999996
sS'num_mixture'
p16
I20
sS'mesh_filename'
p17
S'bunny2.ply'
p18
sS'num_training_samples'
p19
I10000
sS'num_layers'
p20
I1
sS'gpu'
p21
I00
sS'model'
p22
S'lstm'
p23
sS'save_every'
p24
I500
sS'keep_prob'
p25
F0.80000000000000004
sS'num_mixture_normals'
p26
I5
sb.