ccopy_reg
_reconstructor
p1
(cargparse
Namespace
p2
c__builtin__
object
p3
NtRp4
(dp5
S'grad_clip'
p6
F10
sS'relative'
p7
I01
sS'rnn_size'
p8
I256
sS'data_scale'
p9
F500
sS'use_checkpoint'
p10
NsS'learning_rate'
p11
F0.0050000000000000001
sS'num_epochs'
p12
I10
sS'seq_length'
p13
I600
sS'batch_size'
p14
I50
sS'decay_rate'
p15
F0.94999999999999996
sS'num_mixture'
p16
I20
sS'mesh_filename'
p17
S'/home/kronick/Desktop/meshlab samples/bunny2.ply'
p18
sS'num_training_samples'
p19
I10000
sS'num_layers'
p20
I3
sS'model'
p21
S'lstm'
p22
sS'save_every'
p23
I100
sS'keep_prob'
p24
F0.80000000000000004
sb.